ccopy_reg
_reconstructor
p1
(csklearn.svm.classes
SVC
p2
c__builtin__
object
p3
NtRp4
(dp5
S'_impl'
p6
S'c_svc'
p7
sS'kernel'
p8
c__main__
my_kernel
p9
sS'C'
I30
sS'verbose'
p10
I00
sS'probability'
p11
I00
sS'coef0'
p12
F0
sS'epsilon'
p13
F0
sS'max_iter'
p14
I-1
sS'decision_function_shape'
p15
S'ovo'
p16
sS'cache_size'
p17
I200
sS'random_state'
p18
NsS'_sklearn_version'
p19
S'0.19.0'
p20
sS'tol'
p21
F0.001
sS'degree'
p22
I3
sS'shrinking'
p23
I01
sS'nu'
p24
F0
sS'gamma'
p25
S'auto'
p26
sS'class_weight'
p27
Nsb.