ccopy_reg
_reconstructor
p1
(csklearn.ensemble.forest
ExtraTreesClassifier
p2
c__builtin__
object
p3
NtRp4
(dp5
S'warm_start'
p6
I00
sS'base_estimator'
p7
g1
(csklearn.tree.tree
ExtraTreeClassifier
p8
g3
NtRp9
(dp10
S'presort'
p11
I00
sS'splitter'
p12
S'random'
p13
sS'min_impurity_decrease'
p14
F0
sS'min_impurity_split'
p15
NsS'min_samples_leaf'
p16
I1
sS'max_features'
p17
S'auto'
p18
sS'random_state'
p19
NsS'criterion'
p20
S'gini'
p21
sS'min_weight_fraction_leaf'
p22
F0
sS'max_leaf_nodes'
p23
NsS'min_samples_split'
p24
I2
sS'_sklearn_version'
p25
S'0.19.0'
p26
sS'max_depth'
p27
NsS'class_weight'
p28
NsbsS'n_jobs'
p29
I1
sg14
F0
sS'verbose'
p30
I0
sg23
NsS'bootstrap'
p31
I00
sS'oob_score'
p32
I00
sg16
I1
sS'n_estimators'
p33
I30
sg24
I2
sg22
F0
sg20
g21
sS'estimator_params'
p34
(S'criterion'
p35
S'max_depth'
p36
S'min_samples_split'
p37
S'min_samples_leaf'
p38
S'min_weight_fraction_leaf'
p39
S'max_features'
p40
S'max_leaf_nodes'
p41
S'min_impurity_decrease'
p42
S'min_impurity_split'
p43
S'random_state'
p44
tp45
sg19
Nsg15
Nsg17
g18
sg25
g26
sg27
Nsg28
Nsb.